; Function Attrs: mustprogress uwtable
define hidden noundef zeroext i1 @_ZN4cvc58internal6theory11quantifiers4inst25VarMatchGeneratorTermSubs5resetENS0_12NodeTemplateILb1EEE(ptr noundef nonnull align 8 captures(none) dereferenceable(281) %0, ptr noundef readonly captures(none) %1) unnamed_addr #3 align 2 {
  %3 = getelementptr inbounds nuw i8, ptr %0, i64 160
  %4 = load ptr, ptr %3, align 8, !tbaa !6
  %5 = load ptr, ptr %1, align 8, !tbaa !6
  %.not.i = icmp eq ptr %4, %5
  br i1 %.not.i, label %_ZN4cvc58internal12NodeTemplateILb1EEaSERKS2_.exit, label %6, !prof !13

6:                                                ; preds = %2
  %7 = load i64, ptr %4, align 8
  %8 = and i64 %7, 1152920405095219200
  %.not.i.i = icmp eq i64 %8, 1152920405095219200
  br i1 %.not.i.i, label %_ZN4cvc58internal4expr9NodeValue3decEv.exit.i, label %9, !prof !13

9:                                                ; preds = %6
  %10 = add i64 %7, 1152920405095219200
  %11 = and i64 %10, 1152920405095219200
  %12 = and i64 %7, -1152920405095219201
  %13 = or disjoint i64 %11, %12
  store i64 %13, ptr %4, align 8
  %14 = icmp eq i64 %11, 0
  br i1 %14, label %15, label %_ZN4cvc58internal4expr9NodeValue3decEv.exit.i, !prof !13

15:                                               ; preds = %9
  tail call void @_ZN4cvc58internal4expr9NodeValue15markForDeletionEv(ptr noundef nonnull align 8 dereferenceable(24) %4)
  br label %_ZN4cvc58internal4expr9NodeValue3decEv.exit.i

_ZN4cvc58internal4expr9NodeValue3decEv.exit.i:    ; preds = %15, %9, %6
  %16 = load ptr, ptr %1, align 8, !tbaa !6
  store ptr %16, ptr %3, align 8, !tbaa !6
  %17 = load i64, ptr %16, align 8
  %18 = lshr i64 %17, 40
  %19 = trunc nuw nsw i64 %18 to i32
  %20 = and i32 %19, 1048575
  %21 = icmp samesign ult i32 %20, 1048574
  br i1 %21, label %22, label %27, !prof !12

22:                                               ; preds = %_ZN4cvc58internal4expr9NodeValue3decEv.exit.i
  %23 = add i64 %17, 1099511627776
  %24 = and i64 %23, 1152920405095219200
  %25 = and i64 %17, -1152920405095219201
  %26 = or disjoint i64 %24, %25
  store i64 %26, ptr %16, align 8
  br label %_ZN4cvc58internal12NodeTemplateILb1EEaSERKS2_.exit

27:                                               ; preds = %_ZN4cvc58internal4expr9NodeValue3decEv.exit.i
  %28 = icmp eq i32 %20, 1048574
  br i1 %28, label %29, label %_ZN4cvc58internal12NodeTemplateILb1EEaSERKS2_.exit, !prof !13

29:                                               ; preds = %27
  %30 = or i64 %17, 1152920405095219200
  store i64 %30, ptr %16, align 8
  tail call void @_ZN4cvc58internal4expr9NodeValue20markRefCountMaxedOutEv(ptr noundef nonnull align 8 dereferenceable(24) %16)
  br label %_ZN4cvc58internal12NodeTemplateILb1EEaSERKS2_.exit

_ZN4cvc58internal12NodeTemplateILb1EEaSERKS2_.exit: ; preds = %2, %22, %27, %29
  ret i1 true
}